target datalayout = "e-m:e-p270:32:32-p271:32:32-p272:64:64-i64:64-i128:128-f80:128-n8:16:32:64-S128"
target triple = "x86_64-pc-linux-gnu"

%"class.std::__cxx11::basic_string" = type { %"struct.std::__cxx11::basic_string<char>::_Alloc_hider", i64, %union.anon }
%"struct.std::__cxx11::basic_string<char>::_Alloc_hider" = type { ptr }
%union.anon = type { i64, [8 x i8] }
%class.cmValue = type { ptr }

@__dso_handle = external hidden global i8
@_ZZNK10cmMakefile21GetRequiredDefinitionERKNSt7__cxx1112basic_stringIcSt11char_traitsIcESaIcEEEE5emptyB5cxx11 = internal global %"class.std::__cxx11::basic_string" zeroinitializer, align 8
@_ZGVZNK10cmMakefile21GetRequiredDefinitionERKNSt7__cxx1112basic_stringIcSt11char_traitsIcESaIcEEEE5emptyB5cxx11 = internal global i64 0, align 8
@.str.164 = private unnamed_addr constant [104 x i8] c"Error required internal CMake variable not set, cmake may not be built correctly.\0AMissing variable is:\0A\00", align 1
@_ZN7cmValue5EmptyB5cxx11E = external global %"class.std::__cxx11::basic_string", align 8

; Function Attrs: mustprogress nounwind uwtable
define linkonce_odr dso_local noundef nonnull align 8 dereferenceable(32) ptr @_ZNK7cmValuedeB5cxx11Ev(ptr noundef nonnull align 8 dereferenceable(8) %0) #4 comdat align 2 {
  %2 = alloca ptr, align 8
  store ptr %0, ptr %2, align 8
  %3 = load ptr, ptr %2, align 8
  %4 = getelementptr inbounds %class.cmValue, ptr %3, i32 0, i32 0
  %5 = load ptr, ptr %4, align 8
  %6 = icmp eq ptr %5, null
  br i1 %6, label %7, label %8

7:                                                ; preds = %1
  br label %11

8:                                                ; preds = %1
  %9 = getelementptr inbounds %class.cmValue, ptr %3, i32 0, i32 0
  %10 = load ptr, ptr %9, align 8
  br label %11

11:                                               ; preds = %8, %7
  %12 = phi ptr [ @_ZN7cmValue5EmptyB5cxx11E, %7 ], [ %10, %8 ]
  ret ptr %12
}

; Function Attrs: mustprogress nounwind uwtable
define linkonce_odr dso_local noundef zeroext i1 @_ZNK7cmValuecvbEv(ptr noundef nonnull align 8 dereferenceable(8) %0) #4 comdat align 2 {
  %2 = alloca ptr, align 8
  store ptr %0, ptr %2, align 8
  %3 = load ptr, ptr %2, align 8
  %4 = getelementptr inbounds %class.cmValue, ptr %3, i32 0, i32 0
  %5 = load ptr, ptr %4, align 8
  %6 = icmp ne ptr %5, null
  ret i1 %6
}

; Function Attrs: mustprogress uwtable
define dso_local noundef nonnull align 8 dereferenceable(32) ptr @_ZNK10cmMakefile21GetRequiredDefinitionERKNSt7__cxx1112basic_stringIcSt11char_traitsIcESaIcEEE(ptr noundef nonnull align 8 dereferenceable(3520) %0, ptr noundef nonnull align 8 dereferenceable(32) %1) #5 align 2 personality ptr @__gxx_personality_v0 {
  %3 = alloca ptr, align 8
  %4 = alloca ptr, align 8
  %5 = alloca ptr, align 8
  %6 = alloca %class.cmValue, align 8
  %7 = alloca %"class.std::__cxx11::basic_string", align 8
  %8 = alloca ptr, align 8
  %9 = alloca i32, align 4
  store ptr %0, ptr %4, align 8
  store ptr %1, ptr %5, align 8
  %10 = load ptr, ptr %4, align 8
  %11 = load atomic i8, ptr @_ZGVZNK10cmMakefile21GetRequiredDefinitionERKNSt7__cxx1112basic_stringIcSt11char_traitsIcESaIcEEEE5emptyB5cxx11 acquire, align 8
  %12 = icmp eq i8 %11, 0
  br i1 %12, label %13, label %18, !prof !11

13:                                               ; preds = %2
  %14 = call i32 @__cxa_guard_acquire(ptr @_ZGVZNK10cmMakefile21GetRequiredDefinitionERKNSt7__cxx1112basic_stringIcSt11char_traitsIcESaIcEEEE5emptyB5cxx11) #3
  %15 = icmp ne i32 %14, 0
  br i1 %15, label %16, label %18

16:                                               ; preds = %13
  call void @_ZNSt7__cxx1112basic_stringIcSt11char_traitsIcESaIcEEC1Ev(ptr noundef nonnull align 8 dereferenceable(32) @_ZZNK10cmMakefile21GetRequiredDefinitionERKNSt7__cxx1112basic_stringIcSt11char_traitsIcESaIcEEEE5emptyB5cxx11) #3
  %17 = call i32 @__cxa_atexit(ptr @_ZNSt7__cxx1112basic_stringIcSt11char_traitsIcESaIcEED1Ev, ptr @_ZZNK10cmMakefile21GetRequiredDefinitionERKNSt7__cxx1112basic_stringIcSt11char_traitsIcESaIcEEEE5emptyB5cxx11, ptr @__dso_handle) #3
  call void @__cxa_guard_release(ptr @_ZGVZNK10cmMakefile21GetRequiredDefinitionERKNSt7__cxx1112basic_stringIcSt11char_traitsIcESaIcEEEE5emptyB5cxx11) #3
  br label %18

18:                                               ; preds = %16, %13, %2
  %19 = load ptr, ptr %5, align 8
  %20 = call ptr @_ZNK10cmMakefile13GetDefinitionERKNSt7__cxx1112basic_stringIcSt11char_traitsIcESaIcEEE(ptr noundef nonnull align 8 dereferenceable(3520) %10, ptr noundef nonnull align 8 dereferenceable(32) %19)
  %21 = getelementptr inbounds %class.cmValue, ptr %6, i32 0, i32 0
  store ptr %20, ptr %21, align 8
  %22 = call noundef zeroext i1 @_ZNK7cmValuecvbEv(ptr noundef nonnull align 8 dereferenceable(8) %6) #3
  br i1 %22, label %30, label %23

23:                                               ; preds = %18
  %24 = load ptr, ptr %5, align 8
  call void @_ZStplIcSt11char_traitsIcESaIcEENSt7__cxx1112basic_stringIT_T0_T1_EEPKS5_RKS8_(ptr dead_on_unwind writable sret(%"class.std::__cxx11::basic_string") align 8 %7, ptr noundef @.str.164, ptr noundef nonnull align 8 dereferenceable(32) %24)
  invoke void @_ZN13cmSystemTools5ErrorERKNSt7__cxx1112basic_stringIcSt11char_traitsIcESaIcEEE(ptr noundef nonnull align 8 dereferenceable(32) %7)
          to label %25 unwind label %26

25:                                               ; preds = %23
  call void @_ZNSt7__cxx1112basic_stringIcSt11char_traitsIcESaIcEED1Ev(ptr noundef nonnull align 8 dereferenceable(32) %7) #3
  store ptr @_ZZNK10cmMakefile21GetRequiredDefinitionERKNSt7__cxx1112basic_stringIcSt11char_traitsIcESaIcEEEE5emptyB5cxx11, ptr %3, align 8
  br label %32

26:                                               ; preds = %23
  %27 = landingpad { ptr, i32 }
          cleanup
  %28 = extractvalue { ptr, i32 } %27, 0
  store ptr %28, ptr %8, align 8
  %29 = extractvalue { ptr, i32 } %27, 1
  store i32 %29, ptr %9, align 4
  call void @_ZNSt7__cxx1112basic_stringIcSt11char_traitsIcESaIcEED1Ev(ptr noundef nonnull align 8 dereferenceable(32) %7) #3
  br label %34

30:                                               ; preds = %18
  %31 = call noundef nonnull align 8 dereferenceable(32) ptr @_ZNK7cmValuedeB5cxx11Ev(ptr noundef nonnull align 8 dereferenceable(8) %6) #3
  store ptr %31, ptr %3, align 8
  br label %32

32:                                               ; preds = %30, %25
  %33 = load ptr, ptr %3, align 8
  ret ptr %33

34:                                               ; preds = %26
  %35 = load ptr, ptr %8, align 8
  %36 = load i32, ptr %9, align 4
  %37 = insertvalue { ptr, i32 } poison, ptr %35, 0
  %38 = insertvalue { ptr, i32 } %37, i32 %36, 1
  resume { ptr, i32 } %38
}