; Function Attrs: mustprogress uwtable
define dso_local noundef nonnull align 8 dereferenceable(32) ptr @_ZNK10cmMakefile21GetRequiredDefinitionERKNSt7__cxx1112basic_stringIcSt11char_traitsIcESaIcEEE(ptr noundef nonnull align 8 dereferenceable(3520) %0, ptr noundef nonnull align 8 dereferenceable(32) %1) local_unnamed_addr #4 align 2 personality ptr @__gxx_personality_v0 {
  %3 = alloca %"class.std::__cxx11::basic_string", align 8
  %4 = load atomic i8, ptr @_ZGVZNK10cmMakefile21GetRequiredDefinitionERKNSt7__cxx1112basic_stringIcSt11char_traitsIcESaIcEEEE5emptyB5cxx11 acquire, align 8
  %5 = icmp eq i8 %4, 0
  br i1 %5, label %6, label %10, !prof !153

6:                                                ; preds = %2
  %7 = tail call i32 @__cxa_guard_acquire(ptr nonnull @_ZGVZNK10cmMakefile21GetRequiredDefinitionERKNSt7__cxx1112basic_stringIcSt11char_traitsIcESaIcEEEE5emptyB5cxx11) #29
  %.not = icmp eq i32 %7, 0
  br i1 %.not, label %10, label %8

8:                                                ; preds = %6
  tail call void @_ZNSt7__cxx1112basic_stringIcSt11char_traitsIcESaIcEEC1Ev(ptr noundef nonnull align 8 dereferenceable(32) @_ZZNK10cmMakefile21GetRequiredDefinitionERKNSt7__cxx1112basic_stringIcSt11char_traitsIcESaIcEEEE5emptyB5cxx11) #29
  %9 = tail call i32 @__cxa_atexit(ptr nonnull @_ZNSt7__cxx1112basic_stringIcSt11char_traitsIcESaIcEED1Ev, ptr nonnull @_ZZNK10cmMakefile21GetRequiredDefinitionERKNSt7__cxx1112basic_stringIcSt11char_traitsIcESaIcEEEE5emptyB5cxx11, ptr nonnull @__dso_handle) #29
  tail call void @__cxa_guard_release(ptr nonnull @_ZGVZNK10cmMakefile21GetRequiredDefinitionERKNSt7__cxx1112basic_stringIcSt11char_traitsIcESaIcEEEE5emptyB5cxx11) #29
  br label %10

10:                                               ; preds = %8, %6, %2
  %11 = tail call ptr @_ZNK10cmMakefile13GetDefinitionERKNSt7__cxx1112basic_stringIcSt11char_traitsIcESaIcEEE(ptr noundef nonnull align 8 dereferenceable(3520) %0, ptr noundef nonnull align 8 dereferenceable(32) %1)
  %.not6 = icmp eq ptr %11, null
  br i1 %.not6, label %12, label %16

12:                                               ; preds = %10
  call void @_ZStplIcSt11char_traitsIcESaIcEENSt7__cxx1112basic_stringIT_T0_T1_EEPKS5_RKS8_(ptr dead_on_unwind nonnull writable sret(%"class.std::__cxx11::basic_string") align 8 %3, ptr noundef nonnull @.str.164, ptr noundef nonnull align 8 dereferenceable(32) %1)
  invoke void @_ZN13cmSystemTools5ErrorERKNSt7__cxx1112basic_stringIcSt11char_traitsIcESaIcEEE(ptr noundef nonnull align 8 dereferenceable(32) %3)
          to label %13 unwind label %14

13:                                               ; preds = %12
  call void @_ZNSt7__cxx1112basic_stringIcSt11char_traitsIcESaIcEED1Ev(ptr noundef nonnull align 8 dereferenceable(32) %3) #29
  br label %16

14:                                               ; preds = %12
  %15 = landingpad { ptr, i32 }
          cleanup
  call void @_ZNSt7__cxx1112basic_stringIcSt11char_traitsIcESaIcEED1Ev(ptr noundef nonnull align 8 dereferenceable(32) %3) #29
  resume { ptr, i32 } %15

16:                                               ; preds = %10, %13
  %.0 = phi ptr [ @_ZZNK10cmMakefile21GetRequiredDefinitionERKNSt7__cxx1112basic_stringIcSt11char_traitsIcESaIcEEEE5emptyB5cxx11, %13 ], [ %11, %10 ]
  ret ptr %.0
}